; Function Attrs: mustprogress uwtable
define void @_ZN14VrmlTranslator6Parser19ComponentStatementsEv(ptr noundef nonnull align 8 captures(none) dereferenceable(208) %0) local_unnamed_addr #0 align 2 {
  %2 = getelementptr inbounds nuw i8, ptr %0, i64 48
  %3 = load ptr, ptr %2, align 8
  %4 = load i32, ptr %3, align 8
  %5 = icmp eq i32 %4, 12
  br i1 %5, label %.lr.ph, label %._crit_edge

.lr.ph:                                           ; preds = %1, %.lr.ph
  tail call void @_ZN14VrmlTranslator6Parser18ComponentStatementEv(ptr noundef nonnull align 8 dereferenceable(208) %0)
  %6 = load ptr, ptr %2, align 8
  %7 = load i32, ptr %6, align 8
  %8 = icmp eq i32 %7, 12
  br i1 %8, label %.lr.ph, label %._crit_edge, !llvm.loop !9

._crit_edge:                                      ; preds = %.lr.ph, %1
  ret void
}